target datalayout = "e-m:e-p270:32:32-p271:32:32-p272:64:64-i64:64-i128:128-f80:128-n8:16:32:64-S128"
target triple = "x86_64-pc-linux-gnu"

%struct.H5O_token_t = type { [16 x i8] }
%struct.H5C_tag_iter_vct_ctx_t = type { i8 }
%struct.H5F_t = type { ptr, ptr, ptr, ptr, i32, ptr, i8, i8, ptr, i32 }
%struct.H5F_shared_t = type { ptr, ptr, ptr, i8, i32, i32, %struct.H5F_mtab_t, ptr, i8, i8, i64, i32, i32, i64, i64, ptr, ptr, %struct.H5AC_cache_config_t, %struct.H5AC_cache_image_config_t, i8, i8, ptr, i64, i32, i8, i64, i64, double, i64, i64, i64, i32, i32, i32, i8, i32, ptr, ptr, ptr, ptr, i8, i8, i8, i64, ptr, ptr, i32, i64, i8, i32, i8, i64, i8, [13 x i32], [13 x i64], [13 x ptr], i8, i64, i64, [7 x i32], [7 x i32], %struct.H5F_blk_aggr_t, %struct.H5F_blk_aggr_t, i64, i64, %struct.H5F_meta_accum_t, i32, i32, [30 x ptr], %struct.H5F_object_flush_t, i8, ptr }
%struct.H5F_mtab_t = type { i32, i32, ptr }
%struct.H5AC_cache_config_t = type { i32, i8, i8, i8, [1025 x i8], i8, i8, i64, double, i64, i64, i64, i32, double, double, i8, i64, i32, double, double, i32, double, double, i8, i64, i32, i8, double, i64, i32 }
%struct.H5AC_cache_image_config_t = type { i32, i8, i8, i32 }
%struct.H5F_blk_aggr_t = type { i64, i64, i64, i64, i64 }
%struct.H5F_meta_accum_t = type { ptr, i64, i64, i64, i64, i64, i8 }
%struct.H5F_object_flush_t = type { ptr, ptr }

@H5C_init_g = external global i8, align 1
@H5_libterm_g = external global i8, align 1
@.str = private unnamed_addr constant [101 x i8] c"generated/home/dtcxzyw/WorkSpace/Projects/compilers/llvm-opt-benchmark/bench/hdf5/hdf5/src/H5Ctest.c\00", align 1
@__func__.H5C__verify_cork_tag_test = private unnamed_addr constant [26 x i8] c"H5C__verify_cork_tag_test\00", align 1
@H5E_ARGS_g = external global i64, align 8
@H5E_BADTYPE_g = external global i64, align 8
@.str.1 = private unnamed_addr constant [11 x i8] c"not a file\00", align 1
@H5E_CACHE_g = external global i64, align 8
@H5E_CANTGET_g = external global i64, align 8
@.str.2 = private unnamed_addr constant [28 x i8] c"can't get address for token\00", align 1
@H5E_BADITER_g = external global i64, align 8
@.str.3 = private unnamed_addr constant [35 x i8] c"iteration of tagged entries failed\00", align 1

; Function Attrs: nounwind uwtable
define i32 @H5C__verify_cork_tag_test(i64 noundef %0, i64 %1, i64 %2, i1 noundef zeroext %3) #0 {
  %5 = alloca %struct.H5O_token_t, align 1
  %6 = alloca i64, align 8
  %7 = alloca i8, align 1
  %8 = alloca ptr, align 8
  %9 = alloca ptr, align 8
  %10 = alloca %struct.H5C_tag_iter_vct_ctx_t, align 1
  %11 = alloca i64, align 8
  %12 = alloca i32, align 4
  %13 = alloca i8, align 1
  %14 = getelementptr inbounds nuw { i64, i64 }, ptr %5, i32 0, i32 0
  store i64 %1, ptr %14, align 1
  %15 = getelementptr inbounds nuw { i64, i64 }, ptr %5, i32 0, i32 1
  store i64 %2, ptr %15, align 1
  store i64 %0, ptr %6, align 8, !tbaa !3
  %16 = zext i1 %3 to i8
  store i8 %16, ptr %7, align 1, !tbaa !7
  call void @llvm.lifetime.start.p0(i64 8, ptr %8) #4
  call void @llvm.lifetime.start.p0(i64 8, ptr %9) #4
  call void @llvm.lifetime.start.p0(i64 1, ptr %10) #4
  call void @llvm.lifetime.start.p0(i64 8, ptr %11) #4
  call void @llvm.lifetime.start.p0(i64 4, ptr %12) #4
  store i32 0, ptr %12, align 4, !tbaa !9
  call void @llvm.lifetime.start.p0(i64 1, ptr %13) #4
  store i8 0, ptr %13, align 1, !tbaa !7
  %17 = load i8, ptr @H5C_init_g, align 1, !tbaa !7, !range !11, !noundef !12
  %18 = trunc i8 %17 to i1
  br i1 %18, label %23, label %19

19:                                               ; preds = %4
  %20 = load i8, ptr @H5_libterm_g, align 1, !tbaa !7, !range !11, !noundef !12
  %21 = trunc i8 %20 to i1
  %22 = xor i1 %21, true
  br label %23

23:                                               ; preds = %19, %4
  %24 = phi i1 [ true, %4 ], [ %22, %19 ]
  %25 = xor i1 %24, true
  %26 = xor i1 %25, true
  %27 = zext i1 %26 to i32
  %28 = sext i32 %27 to i64
  %29 = call i64 @llvm.expect.i64(i64 %28, i64 1)
  %30 = icmp ne i64 %29, 0
  br i1 %30, label %31, label %116

31:                                               ; preds = %23
  %32 = load i64, ptr %6, align 8, !tbaa !3
  %33 = call ptr @H5VL_object_verify(i64 noundef %32, i32 noundef 1)
  store ptr %33, ptr %8, align 8, !tbaa !13
  %34 = icmp eq ptr null, %33
  br i1 %34, label %35, label %54

35:                                               ; preds = %31
  br label %36

36:                                               ; preds = %35
  br label %37

37:                                               ; preds = %36
  br label %38

38:                                               ; preds = %37
  %39 = load i64, ptr @H5E_ARGS_g, align 8, !tbaa !3
  %40 = load i64, ptr @H5E_BADTYPE_g, align 8, !tbaa !3
  %41 = call i32 (ptr, ptr, i32, i64, i64, ptr, ...) @H5E_printf_stack(ptr noundef @.str, ptr noundef @__func__.H5C__verify_cork_tag_test, i32 noundef 129, i64 noundef %39, i64 noundef %40, ptr noundef @.str.1)
  br label %42

42:                                               ; preds = %38
  br label %43

43:                                               ; preds = %42
  store i8 1, ptr %13, align 1, !tbaa !7
  %44 = load i8, ptr %13, align 1, !tbaa !7, !range !11, !noundef !12
  %45 = trunc i8 %44 to i1
  %46 = zext i1 %45 to i8
  store i8 %46, ptr %13, align 1, !tbaa !7
  br label %47

47:                                               ; preds = %43
  br label %48

48:                                               ; preds = %47
  br label %49

49:                                               ; preds = %48
  store i32 -1, ptr %12, align 4, !tbaa !9
  br label %115

50:                                               ; No predecessors!
  br label %51

51:                                               ; preds = %50
  br label %52

52:                                               ; preds = %51
  br label %53

53:                                               ; preds = %52
  br label %54

54:                                               ; preds = %53, %31
  store i64 -1, ptr %11, align 8, !tbaa !3
  %55 = load ptr, ptr %8, align 8, !tbaa !13
  %56 = getelementptr inbounds nuw { i64, i64 }, ptr %5, i32 0, i32 0
  %57 = load i64, ptr %56, align 1
  %58 = getelementptr inbounds nuw { i64, i64 }, ptr %5, i32 0, i32 1
  %59 = load i64, ptr %58, align 1
  %60 = call i32 @H5VL_native_token_to_addr(ptr noundef %55, i32 noundef 1, i64 %57, i64 %59, ptr noundef %11)
  %61 = icmp slt i32 %60, 0
  br i1 %61, label %62, label %81

62:                                               ; preds = %54
  br label %63

63:                                               ; preds = %62
  br label %64

64:                                               ; preds = %63
  br label %65

65:                                               ; preds = %64
  %66 = load i64, ptr @H5E_CACHE_g, align 8, !tbaa !3
  %67 = load i64, ptr @H5E_CANTGET_g, align 8, !tbaa !3
  %68 = call i32 (ptr, ptr, i32, i64, i64, ptr, ...) @H5E_printf_stack(ptr noundef @.str, ptr noundef @__func__.H5C__verify_cork_tag_test, i32 noundef 134, i64 noundef %66, i64 noundef %67, ptr noundef @.str.2)
  br label %69

69:                                               ; preds = %65
  br label %70

70:                                               ; preds = %69
  store i8 1, ptr %13, align 1, !tbaa !7
  %71 = load i8, ptr %13, align 1, !tbaa !7, !range !11, !noundef !12
  %72 = trunc i8 %71 to i1
  %73 = zext i1 %72 to i8
  store i8 %73, ptr %13, align 1, !tbaa !7
  br label %74

74:                                               ; preds = %70
  br label %75

75:                                               ; preds = %74
  br label %76

76:                                               ; preds = %75
  store i32 -1, ptr %12, align 4, !tbaa !9
  br label %115

77:                                               ; No predecessors!
  br label %78

78:                                               ; preds = %77
  br label %79

79:                                               ; preds = %78
  br label %80

80:                                               ; preds = %79
  br label %81

81:                                               ; preds = %80, %54
  %82 = load ptr, ptr %8, align 8, !tbaa !13
  %83 = getelementptr inbounds nuw %struct.H5F_t, ptr %82, i32 0, i32 2
  %84 = load ptr, ptr %83, align 8, !tbaa !16
  %85 = getelementptr inbounds nuw %struct.H5F_shared_t, ptr %84, i32 0, i32 16
  %86 = load ptr, ptr %85, align 8, !tbaa !22
  store ptr %86, ptr %9, align 8, !tbaa !42
  %87 = load i8, ptr %7, align 1, !tbaa !7, !range !11, !noundef !12
  %88 = trunc i8 %87 to i1
  %89 = getelementptr inbounds nuw %struct.H5C_tag_iter_vct_ctx_t, ptr %10, i32 0, i32 0
  %90 = zext i1 %88 to i8
  store i8 %90, ptr %89, align 1, !tbaa !43
  %91 = load ptr, ptr %9, align 8, !tbaa !42
  %92 = load i64, ptr %11, align 8, !tbaa !3
  %93 = call i32 @H5C__iter_tagged_entries(ptr noundef %91, i64 noundef %92, i1 noundef zeroext false, ptr noundef @H5C__verify_cork_tag_test_cb, ptr noundef %10)
  %94 = icmp slt i32 %93, 0
  br i1 %94, label %95, label %114

95:                                               ; preds = %81
  br label %96

96:                                               ; preds = %95
  br label %97

97:                                               ; preds = %96
  br label %98

98:                                               ; preds = %97
  %99 = load i64, ptr @H5E_CACHE_g, align 8, !tbaa !3
  %100 = load i64, ptr @H5E_BADITER_g, align 8, !tbaa !3
  %101 = call i32 (ptr, ptr, i32, i64, i64, ptr, ...) @H5E_printf_stack(ptr noundef @.str, ptr noundef @__func__.H5C__verify_cork_tag_test, i32 noundef 144, i64 noundef %99, i64 noundef %100, ptr noundef @.str.3)
  br label %102

102:                                              ; preds = %98
  br label %103

103:                                              ; preds = %102
  store i8 1, ptr %13, align 1, !tbaa !7
  %104 = load i8, ptr %13, align 1, !tbaa !7, !range !11, !noundef !12
  %105 = trunc i8 %104 to i1
  %106 = zext i1 %105 to i8
  store i8 %106, ptr %13, align 1, !tbaa !7
  br label %107

107:                                              ; preds = %103
  br label %108

108:                                              ; preds = %107
  br label %109

109:                                              ; preds = %108
  store i32 -1, ptr %12, align 4, !tbaa !9
  br label %115

110:                                              ; No predecessors!
  br label %111

111:                                              ; preds = %110
  br label %112

112:                                              ; preds = %111
  br label %113

113:                                              ; preds = %112
  br label %114

114:                                              ; preds = %113, %81
  br label %115

115:                                              ; preds = %114, %109, %76, %49
  br label %116

116:                                              ; preds = %115, %23
  %117 = load i32, ptr %12, align 4, !tbaa !9
  call void @llvm.lifetime.end.p0(i64 1, ptr %13) #4
  call void @llvm.lifetime.end.p0(i64 4, ptr %12) #4
  call void @llvm.lifetime.end.p0(i64 8, ptr %11) #4
  call void @llvm.lifetime.end.p0(i64 1, ptr %10) #4
  call void @llvm.lifetime.end.p0(i64 8, ptr %9) #4
  call void @llvm.lifetime.end.p0(i64 8, ptr %8) #4
  ret i32 %117
}