; Function Attrs: nounwind uwtable
define range(i32 -1, 1) i32 @H5C__verify_cork_tag_test(i64 noundef %0, i64 %1, i64 %2, i1 noundef zeroext %3) local_unnamed_addr #0 {
  %5 = alloca %struct.H5C_tag_iter_vct_ctx_t, align 1
  %6 = alloca i64, align 8
  %7 = zext i1 %3 to i8
  call void @llvm.lifetime.start.p0(i64 1, ptr nonnull %5) #3
  call void @llvm.lifetime.start.p0(i64 8, ptr nonnull %6) #3
  %8 = load i8, ptr @H5C_init_g, align 1, !tbaa !3, !range !7, !noundef !8
  %9 = trunc nuw i8 %8 to i1
  %10 = load i8, ptr @H5_libterm_g, align 1, !range !7
  %11 = trunc nuw i8 %10 to i1
  %12 = xor i1 %11, true
  %13 = select i1 %9, i1 true, i1 %12
  br i1 %13, label %14, label %40, !prof !9

14:                                               ; preds = %4
  %15 = tail call ptr @H5VL_object_verify(i64 noundef %0, i32 noundef 1) #3
  %16 = icmp eq ptr %15, null
  br i1 %16, label %17, label %21

17:                                               ; preds = %14
  %18 = load i64, ptr @H5E_ARGS_g, align 8, !tbaa !10
  %19 = load i64, ptr @H5E_BADTYPE_g, align 8, !tbaa !10
  %20 = tail call i32 (ptr, ptr, i32, i64, i64, ptr, ...) @H5E_printf_stack(ptr noundef nonnull @.str, ptr noundef nonnull @__func__.H5C__verify_cork_tag_test, i32 noundef 129, i64 noundef %18, i64 noundef %19, ptr noundef nonnull @.str.1) #3
  br label %40

21:                                               ; preds = %14
  store i64 -1, ptr %6, align 8, !tbaa !10
  %22 = call i32 @H5VL_native_token_to_addr(ptr noundef nonnull %15, i32 noundef 1, i64 %1, i64 %2, ptr noundef nonnull %6) #3
  %23 = icmp slt i32 %22, 0
  br i1 %23, label %24, label %28

24:                                               ; preds = %21
  %25 = load i64, ptr @H5E_CACHE_g, align 8, !tbaa !10
  %26 = load i64, ptr @H5E_CANTGET_g, align 8, !tbaa !10
  %27 = call i32 (ptr, ptr, i32, i64, i64, ptr, ...) @H5E_printf_stack(ptr noundef nonnull @.str, ptr noundef nonnull @__func__.H5C__verify_cork_tag_test, i32 noundef 134, i64 noundef %25, i64 noundef %26, ptr noundef nonnull @.str.2) #3
  br label %40

28:                                               ; preds = %21
  %29 = getelementptr inbounds nuw i8, ptr %15, i64 16
  %30 = load ptr, ptr %29, align 8, !tbaa !12
  %31 = getelementptr inbounds nuw i8, ptr %30, i64 112
  %32 = load ptr, ptr %31, align 8, !tbaa !21
  store i8 %7, ptr %5, align 1, !tbaa !41
  %33 = load i64, ptr %6, align 8, !tbaa !10
  %34 = call i32 @H5C__iter_tagged_entries(ptr noundef %32, i64 noundef %33, i1 noundef zeroext false, ptr noundef nonnull @H5C__verify_cork_tag_test_cb, ptr noundef nonnull %5) #3
  %35 = icmp slt i32 %34, 0
  br i1 %35, label %36, label %40

36:                                               ; preds = %28
  %37 = load i64, ptr @H5E_CACHE_g, align 8, !tbaa !10
  %38 = load i64, ptr @H5E_BADITER_g, align 8, !tbaa !10
  %39 = call i32 (ptr, ptr, i32, i64, i64, ptr, ...) @H5E_printf_stack(ptr noundef nonnull @.str, ptr noundef nonnull @__func__.H5C__verify_cork_tag_test, i32 noundef 144, i64 noundef %37, i64 noundef %38, ptr noundef nonnull @.str.3) #3
  br label %40

40:                                               ; preds = %17, %24, %36, %28, %4
  %.0 = phi i32 [ -1, %17 ], [ -1, %24 ], [ -1, %36 ], [ 0, %28 ], [ 0, %4 ]
  call void @llvm.lifetime.end.p0(i64 8, ptr nonnull %6) #3
  call void @llvm.lifetime.end.p0(i64 1, ptr nonnull %5) #3
  ret i32 %.0
}